(dp0
I1
(lp1
S'Copy of 001 ENLEAYA001.srt.txt'
p2
asI2
(lp3
S'Copy of 002 MATH AYA 002 edited.srt.txt'
p4
asI3
(lp5
S'Copy of 003 MUSICEMC003.srt.txt'
p6
asI4
(lp7
S'Copy of 004A MUSICEAYA004A.srt.txt,Copy of 004B MUSICEAYA004B.srt.txt'
p8
asI5
(lp9
S'Copy of 005 WL_EAYA_005_25_FRE 005 edited.srt.txt'
p10
asI6
(lp11
S'Copy of 006 ARTEAYA006.srt.txt'
p12
asI1031
(lp13
S'Copy of 1031 SCI AYA 1031edited.srt.txt'
p14
asI1033
(lp15
S'Copy of 1033 SCI AYA 1033.srt.txt'
p16
asI10
(lp17
S'Copy of 010 SCECYA010.srt.txt'
p18
asI12
(lp19
S'Copy of 012B PE EAYA 012Bedited.srt.txt,Copy of 012A PE EAYA 012Aedited.srt.txt'
p20
asI1026
(lp21
S'Copy of 1026 SCI AYA 1026edited.srt.txt'
p22
asI14
(lp23
S'Copy of 014B LMECYA014B.srt.txt,Copy of 014A LMECYA014A.srt.txt'
p24
asI1042
(lp25
S'Copy of 1042 SCI AYA 1042edited.srt.txt'
p26
asI20
(lp27
S'Copy of 020 ELAEA020.srt.txt'
p28
asI21
(lp29
S'Copy of 021 SSH EA 021edited.srt.txt'
p30
asI1046
(lp31
S'Copy of 1046 SCI AYA 1046edited.srt.txt'
p32
asI1047
(lp33
S'Copy of 1047 SCI AYA 1047edited.srt.txt'
p34
asI24
(lp35
S'Copy of 024 MUSIC EAYA 024.srt.txt'
p36
asI1049
(lp37
S'Copy of 1049 SCI AYA 1049edited.srt.txt'
p38
asI26
(lp39
S'Copy of 026 GEN MC 026edited.srt.txt'
p40
asI27
(lp41
S'Copy of 027 ELAAYA027.srt.txt'
p42
asI28
(lp43
S'Copy of 028 PE EMC 028edited.srt.txt'
p44
asI29
(lp45
S'Copy of 029B LM ECYA 029Bedited.srt.txt,Copy of 029A LM ECYA 029 A.srt.txt'
p46
asI1054
(lp47
S'Copy of 1054 SCI AYA 1054edited.srt.txt'
p48
asI31
(lp49
S'Copy of 031 SCIAYA031.srt.txt'
p50
asI32
(lp51
S'Copy of 032 ENS ECYA 032.srt.txt'
p52
asI1057
(lp53
S'Copy of 1057 SCI AYA 1057edited.srt.txt'
p54
asI34
(lp55
S'Copy of 034 GENEC034.srt.txt'
p56
asI1060
(lp57
S'Copy of 1060 SCI AYA 1060edited.srt.txt'
p58
asI1062
(lp59
S'Copy of 1062 SCI AYA 1062edited.srt.txt'
p60
asI40
(lp61
S'Copy of 040 MUSIC EAYA 040.srt.txt'
p62
asI41
(lp63
S'Copy of 041 SCECYA041.srt.txt'
p64
asI42
(lp65
S'Copy of 042 ENL EMC 042edited.srt.txt'
p66
asI43
(lp67
S'Copy of 043 GENMC043.srt.txt'
p68
asI1069
(lp69
S'Copy of 1069 SCI AYA 1069edited.srt.txt'
p70
asI46
(lp71
S'Copy of 046 ARTEMC046.srt.txt'
p72
asI1071
(lp73
S'Copy of 1071 SCI AYA 1071edited.srt.txt'
p74
asI48
(lp75
S'Copy of 048 GEN EC 048edited.srt.txt'
p76
asI1073
(lp77
S'Copy of 1073 SCI AYA 1073edited.srt.txt'
p78
asI50
(lp79
S'Copy of 050 GEN EC 050edited.srt.txt'
p80
asI51
(lp81
S'Copy of 051 ENSECYA051.srt.txt'
p82
asI52
(lp83
S'Copy of 052 ELA AYA 052edited.srt.txt'
p84
asI94
(lp85
S'Copy of 094 SCIEA094.srt.txt'
p86
asI1078
(lp87
S'Copy of 1078 SCI AYA 1078edited.srt.txt'
p88
asI55
(lp89
S'Copy of 055 ENL_EMC_055_25_LAS 055 edited.srt.txt'
p90
asI1080
(lp91
S'Copy of 1080 SCI AYA 1080edited.srt.txt'
p92
asI1082
(lp93
S'Copy of 1082 SCI AYA 1082-2edited.srt.txt'
p94
asI60
(lp95
S'Copy of 060 SSH EA 060 edited.srt.txt'
p96
asI61
(lp97
S'Copy of 061 WL_EAYA_061_25_LAS 061edited.srt.txt'
p98
asI64
(lp99
S'Copy of 064A LRLAEM 064A.srt.txt,Copy of 064B LRLA EMC 064 B.srt.txt'
p100
asI65
(lp101
S'Copy of 065B MUSIC EAYA 065 B.srt.txt,Copy of 065A MUSIC EAYA 065 A.srt.txt'
p102
asI66
(lp103
S'Copy of 066 ENS ECYA 066 edited.srt.txt'
p104
asI68
(lp105
S'Copy of 068 GEN MC 068 edited.srt.txt'
p106
asI70
(lp107
S'Copy of 070B MUSIC EMC 070 B.srt.txt,Copy of 070A MUSIC EMC 070 A.srt.txt'
p108
asI73
(lp109
S'Copy of 073 SCI AYA 073.srt.txt'
p110
asI74
(lp111
S'Copy of 074A ENL EMC 074A edited.srt.txt,Copy of 074B ENL EMC 074B edited.srt.txt'
p112
asI75
(lp113
S'Copy of 075 PE EMC 075.srt.txt'
p114
asI76
(lp115
S'Copy of 076 GEN EC 076 edited.srt.txt'
p116
asI77
(lp117
S'Copy of 077 SSH AYA 077.srt.txt'
p118
asI590
(lp119
S'Copy of 590 GEN EC 590edited.srt.txt'
p120
asI79
(lp121
S'Copy of 079 MUSIC EMC 079.srt.txt'
p122
asI81
(lp123
S'Copy of 081 ARTEMC081.srt.txt'
p124
asI82
(lp125
S'Copy of 082 ELAEA082.srt.txt'
p126
asI595
(lp127
S'Copy of 595 GEN EC 595edited.srt.txt'
p128
asI596
(lp129
S'Copy of 596 GEN EC 596edited.srt.txt'
p130
asI85
(lp131
S'Copy of 085A MUSIC EMC 085 A.srt.txt,Copy of 085B MUSIC EMC 085 B.srt.txt'
p132
asI86
(lp133
S'Copy of 086 SSH AYA 086.srt.txt'
p134
asI87
(lp135
S'Copy of 087 ARTEMC087.srt.txt'
p136
asI90
(lp137
S'Copy of 090 SCI EA 090.srt.txt'
p138
asI603
(lp139
S'Copy of 603 GEN MC 603edited.srt.txt'
p140
asI93
(lp141
S'Copy of 093 GEN EC 093.srt.txt'
p142
asI606
(lp143
S'Copy of 606 GEN MC 606edited.srt.txt'
p144
asI96
(lp145
S'Copy of 096 LRLAEMC096.srt.txt'
p146
asI98
(lp147
S'Copy of 098 MUSIC EMC 098.srt.txt'
p148
asI99
(lp149
S'Copy of 099 ELA EA 099 edited.srt.txt'
p150
asI101
(lp151
S'Copy of 101 SSH EA 101 edited.srt.txt'
p152
asI102
(lp153
S'Copy of 102B PE EAYA 102 B.srt.txt,Copy of 102A PE EAYA 102A edited.srt.txt'
p154
asI104
(lp155
S'Copy of 104 ELA AYA 104.srt.txt'
p156
asI618
(lp157
S'Copy of 618 GEN MC 618 edited.srt.txt'
p158
asI107
(lp159
S'Copy of 107 CTE EAYA 107.srt.txt'
p160
asI108
(lp161
S'Copy of 108B ART EAYA 108 B.srt.txt,Copy of 108C ART EAYA 108 C.srt.txt,Copy of 108A ART EAYA 108 A.srt.txt'
p162
asI621
(lp163
S'Copy of 621 GEN MC 621 edited.srt.txt'
p164
asI111
(lp165
S'Copy of 111 MATH AYA 111edited.srt.txt'
p166
asI112
(lp167
S'Copy of 112 MUSIC EAYA 112edited.srt.txt'
p168
asI113
(lp169
S'Copy of 113 ENL EMC 113edited.srt.txt'
p170
asI114
(lp171
S'Copy of 114 ELA AYA 114edited.srt.txt'
p172
asI115
(lp173
S'Copy of 115 ENS ECYA 115edited.srt.txt'
p174
asI116
(lp175
S'Copy of 116 ART EAYA 116.srt.txt'
p176
asI118
(lp177
S'Copy of 118 GEN MC 118edited.srt.txt'
p178
asI120
(lp179
S'Copy of 120 MATH EA 120edited.srt.txt'
p180
asI122
(lp181
S'Copy of 122B CTE EAYA 122 B edited.srt.txt,Copy of 122A CTE EAYA 122 A.srt.txt'
p182
asI123
(lp183
S'Copy of 123 WL_EAYA_123_25_FRE 123 edited.srt.txt'
p184
asI106
(lp185
S'Copy of 106 SCI EA 106.srt.txt'
p186
asI128
(lp187
S'Copy of 128 PE EAYA 128edited.srt.txt'
p188
asI129
(lp189
S'Copy of 129 LRLA EMC 129edited.srt.txt'
p190
asI131
(lp191
S'Copy of 131 ELA AYA 131.srt.txt'
p192
asI132
(lp193
S'Copy of 132 ART EAYA 132edited.srt.txt'
p194
asI22
(lp195
S'Copy of 022 ELAAYA022.srt.txt'
p196
asI134
(lp197
S'Copy of 134 MATH AYA 134 edited.srt.txt'
p198
asI135
(lp199
S'Copy of 135 SC ECYA 135 edited.srt.txt'
p200
asI137
(lp201
S'Copy of 137 PE EMC 137 edited.srt.txt'
p202
asI142
(lp203
S'Copy of 142 GEN EC 142.srt.txt'
p204
asI146
(lp205
S'Copy of 146 ELA AYA 146 edited.srt.txt'
p206
asI148
(lp207
S'Copy of 148 GEN MC 148 edited.srt.txt'
p208
asI150
(lp209
S'Copy of 150 GEN EC 150 edited.srt.txt'
p210
asI151
(lp211
S'Copy of 151B ART EMC 151 B.srt.txt,Copy of 151A ART EMC 151A edited.srt.txt'
p212
asI153
(lp213
S'Copy of 153 ENS ECYA 153 edited.srt.txt'
p214
asI154
(lp215
S'Copy of 154B CTE EAYA 154 B.srt.txt,Copy of 154A CTE EAYA 154 A.srt.txt'
p216
asI156
(lp217
S'Copy of 156 ENS ECYA 156 edited.srt.txt'
p218
asI157
(lp219
S'Copy of 157 LRLA EMC 157.srt.txt'
p220
asI158
(lp221
S'Copy of 158 SSH EA 158 edited.srt.txt'
p222
asI160
(lp223
S'Copy of 160 SCI AYA 160.srt.txt'
p224
asI161
(lp225
S'Copy of 161 SCI EA 161 edited.srt.txt'
p226
asI163
(lp227
S'Copy of 163 HE EAYA 163.srt.txt'
p228
asI164
(lp229
S'Copy of 164 GEN MC 164 edited.srt.txt'
p230
asI165
(lp231
S'Copy of 165 CTE EAYA 165 edited.srt.txt'
p232
asI166
(lp233
S'Copy of 166 LRLA EMC 166 edited.srt.txt'
p234
asI167
(lp235
S'Copy of 167 PE EMC 167 edited.srt.txt'
p236
asI171
(lp237
S'Copy of 171 ENS ECYA 171.srt.txt'
p238
asI173
(lp239
S'Copy of 173 GEN EC 173 edited.srt.txt'
p240
asI797
(lp241
S'Copy of 797 MATH EA 797 edited.srt.txt'
p242
asI176
(lp243
S'Copy of 176 ELA AYA 176 edited.srt.txt'
p244
asI177
(lp245
S'Copy of 177 SC ECYA 177.srt.txt'
p246
asI181
(lp247
S'Copy of 181 ELA EA 181.srt.txt'
p248
asI183
(lp249
S'Copy of 183 PE EAYA 183 edited.srt.txt'
p250
asI188
(lp251
S'Copy of 188 ELA AYA 188 edited.srt.txt'
p252
asI190
(lp253
S'Copy of 190 ENL EAYA 190edited.srt.txt'
p254
asI191
(lp255
S'Copy of 191 LRLA EMC 191edited.srt.txt'
p256
asI192
(lp257
S'Copy of 192 ENL EAYA 192.srt.txt'
p258
asI194
(lp259
S'Copy of 194 GEN MC 194edited.srt.txt'
p260
asI195
(lp261
S'Copy of 195 SSH AYA 195edited.srt.txt'
p262
asI196
(lp263
S'Copy of 196 MATH AYA 196edited.srt.txt'
p264
asI198
(lp265
S'Copy of 198 ELA AYA 198edited.srt.txt'
p266
asI33
(lp267
S'Copy of 033 ENS ECYA 033 edited.srt.txt'
p268
asI201
(lp269
S'Copy of 201 ELA AYA 201edited.srt.txt'
p270
asI202
(lp271
S'Copy of 202 MUSIC EMC 202edited.srt.txt'
p272
asI203
(lp273
S'Copy of 203 SSH AYA 203edited.srt.txt'
p274
asI204
(lp275
S'Copy of 204 LRLA EMC 204.srt.txt'
p276
asI205
(lp277
S'Copy of 205 ENS ECYA 205edited.srt.txt'
p278
asI206
(lp279
S'Copy of 206 GEN EC 206edited.srt.txt'
p280
asI207
(lp281
S'Copy of 207 LRLA EMC 207edited.srt.txt'
p282
asI212
(lp283
S'Copy of 212 WL_EAYA_212_25_LAS 212 edited.srt.txt'
p284
asI213
(lp285
S'Copy of 213 GEN MC 213edited.srt.txt'
p286
asI214
(lp287
S'Copy of 214 HE EAYA 214 edited.srt.txt'
p288
asI216
(lp289
S'Copy of 216 LM ECYA 216edited.srt.txt'
p290
asI217
(lp291
S'Copy of 217 MATH EA 217edited.srt.txt'
p292
asI218
(lp293
S'Copy of 218 LRLA EMC 218edited.srt.txt'
p294
asI221
(lp295
S'Copy of 221 ELA AYA 221edited.srt.txt'
p296
asI238
(lp297
S'Copy of 238 MATH EA 238 edited.srt.txt'
p298
asI1064
(lp299
S'Copy of 1064 SCI AYA 1064edited.srt.txt'
p300
asI243
(lp301
S'Copy of 243 SCI EA 243 edited.srt.txt'
p302
asI244
(lp303
S'Copy of 244A SCI EA 244 A edited.srt.txt,Copy of 244B SCI EA 244 Bedited.srt.txt'
p304
asI245
(lp305
S'Copy of 245 SCI AYA 245edited.srt.txt'
p306
asI261
(lp307
S'Copy of 261 MATH AYA 261edited.srt.txt'
p308
asI262
(lp309
S'Copy of 262A SCI EA 262 Aedited.srt.txt,Copy of 262B SCI EA 262 Bedited.srt.txt'
p310
asI265
(lp311
S'Copy of 265 MATH EA 265edited.srt.txt'
p312
asI268
(lp313
S'Copy of 268 MATH AYA 268edited.srt.txt'
p314
asI269
(lp315
S'Copy of 269 SCI AYA 269edited.srt.txt'
p316
asI1837
(lp317
S'Copy of 1837 SCI_EA_1837_Video_Recording_A_edited.srt.txt'
p318
asI274
(lp319
S'Copy of 274A SCI EA 274 Aedited.srt.txt,Copy of 274B SCI EA 274 Bedited.srt.txt'
p320
asI9
(lp321
S'Copy of 009 LRLAEMC009.srt.txt'
p322
asI1838
(lp323
S'Copy of 1838 SCI_EA_1838_Video_Recording_A_edited.srt.txt'
p324
asI280
(lp325
S'Copy of 280 MATH AYA 280edited.srt.txt'
p326
asI796
(lp327
S'Copy of 796 MATH EA 796 edited.srt.txt'
p328
asI285
(lp329
S'Copy of 285B SCI EA 285 B edited.srt.txt,Copy of 285A SCI EA 285 Aedited.srt.txt'
p330
asI289
(lp331
S'Copy of 289 SCI EA 289 edited.srt.txt'
p332
asI804
(lp333
S'Copy of 804 MATH EA 804 edited.srt.txt'
p334
asI293
(lp335
S'Copy of 293 SCI EA 293 edited.srt.txt'
p336
asI806
(lp337
S'Copy of 806 MATH EA 806 edited.srt.txt'
p338
asI297
(lp339
S'Copy of 297 MATH EA 297 edited.srt.txt'
p340
asI1835
(lp341
S'Copy of 1835 SCI_EA_1835_Video_Recording_A_edited.srt.txt'
p342
asI812
(lp343
S'Copy of 812 MATH EA 812 edited.srt.txt'
p344
asI813
(lp345
S'Copy of 813 MATH EA 813 edited.srt.txt'
p346
asI302
(lp347
S'Copy of 302B SCI EA 302 B edited.srt.txt,Copy of 302A SCI EA 302 A edited.srt.txt'
p348
asI1839
(lp349
S'Copy of 1839 SCI_EA_1839_Video_Recording_A_edited.srt.txt'
p350
asI310
(lp351
S'Copy of 310 MATH EA 310 edited.srt.txt'
p352
asI825
(lp353
S'Copy of 825 SCI EA 825 edited.srt.txt'
p354
asI826
(lp355
S'Copy of 826 SCI EA 826 edited.srt.txt'
p356
asI828
(lp357
S'Copy of 828 SCI EA 828 edited.srt.txt'
p358
asI53
(lp359
S'Copy of 053 GEN EC 053 edited.srt.txt'
p360
asI1857
(lp361
S'Copy of 1857 SCI_EA_1857_Video_Recording_A edited.srt.txt'
p362
asI1846
(lp363
S'Copy of 1846 SCI_EA_1846_Video_Recording_A_edited.srt.txt'
p364
asI838
(lp365
S'Copy of 838 SCI EA 838 edited.srt.txt'
p366
asI839
(lp367
S'Copy of 839 SCI EA 839 edited.srt.txt'
p368
asI840
(lp369
S'Copy of 840 SCI EA 840 edited.srt.txt'
p370
asI841
(lp371
S'Copy of 841 SCI EA 841 edited.srt.txt'
p372
asI842
(lp373
S'Copy of 842 SCI EA 842edited.srt.txt'
p374
asI45
(lp375
S'Copy of 045 GENMC045.srt.txt'
p376
asI846
(lp377
S'Copy of 846 SCI EA 846edited.srt.txt'
p378
asI1360
(lp379
S'Copy of 1360 GEN_EC_1360_Video_Recording_A_edited.srt.txt'
p380
asI1362
(lp381
S'Copy of 1362 GEN_EC_1362_Video_Recording_A_edited.srt.txt'
p382
asI1363
(lp383
S'Copy of 1363 GEN_EC_1363_Video_Recording_A_edited.srt.txt'
p384
asI1364
(lp385
S'Copy of 1364 GEN_EC_1364_Video_Recording_A_edited.srt.txt'
p386
asI1365
(lp387
S'Copy of 1365 GEN_EC_1365_Video_Recording_A_edited.srt.txt'
p388
asI1366
(lp389
S'Copy of 1366 GEN_EC_1366_Video_Recording_A_edited.srt.txt'
p390
asI608
(lp391
S'Copy of 608 GEN MC 608edited.srt.txt'
p392
asI1372
(lp393
S'Copy of 1372 GEN_EC_1372_Video_Recording_A_edited.srt.txt'
p394
asI1373
(lp395
S'Copy of 1373 GEN_EC_1373_Video_Recording_A_edited.srt.txt'
p396
asI1375
(lp397
S'Copy of 1375 GEN_MC_1375_Video_Recording_A_edited.srt.txt'
p398
asI1377
(lp399
S'Copy of 1377 GEN_MC_1377_Video_Recording_A_edited.srt.txt'
p400
asI1378
(lp401
S'Copy of 1378 GEN_MC_1378_Video_Recording_A_(Source)_edited.srt.txt'
p402
asI1379
(lp403
S'Copy of 1379 GEN_MC_1379_Video_Recording_A_edited.srt.txt'
p404
asI1380
(lp405
S'Copy of 1380 GEN_MC_1380_Video_Recording_A_edited.srt.txt'
p406
asI1382
(lp407
S'Copy of 1382 GEN_MC_1382_Video_Recording_A_edited.srt.txt'
p408
asI616
(lp409
S'Copy of 616 GEN MC 616 edited.srt.txt'
p410
asI1053
(lp411
S'Copy of 1053 SCI AYA 1053edited.srt.txt'
p412
asI610
(lp413
S'Copy of 610 GEN MC 610 edited.srt.txt'
p414
asI837
(lp415
S'Copy of 837 SCI EA 837 edited.srt.txt'
p416
asI611
(lp417
S'Copy of 611 GEN MC 611 edited.srt.txt'
p418
asI448
(lp419
S'Copy of 448 GEN EC 448 edited.srt.txt'
p420
asI1072
(lp421
S'Copy of 1072 SCI AYA 1072edited.srt.txt'
p422
asI459
(lp423
S'Copy of 459 GEN EC 459 edited.srt.txt'
p424
asI460
(lp425
S'Copy of 460 GEN EC 460 edited.srt.txt'
p426
asI845
(lp427
S'Copy of 845 SCI EA 845edited.srt.txt'
p428
asI981
(lp429
S'Copy of 981 MATH AYA 981 edited.srt.txt'
p430
asI990
(lp431
S'Copy of 990 MATH AYA 990 edited.srt.txt'
p432
asI994
(lp433
S'Copy of 994 MATH AYA 994 edited.srt.txt'
p434
asI996
(lp435
S'Copy of 996 MATH AYA 996 edited.srt.txt'
p436
asI1008
(lp437
S'Copy of 1008 MATH AYA 1008edited.srt.txt'
p438
asI1015
(lp439
S'Copy of 1015 MATH AYA 1015 edited.srt.txt'
p440
asI340
(lp441
S'Copy of 340 MATH AYA 340 edited.srt.txt'
p442
asI1022
(lp443
S'Copy of 1022 SCI AYA 1022 edited.srt.txt'
p444
asI597
(lp445
S'Copy of 597 GEN EC 597edited.srt.txt'
p446
as.